target datalayout = "e-m:e-p270:32:32-p271:32:32-p272:64:64-i64:64-i128:128-f80:128-n8:16:32:64-S128"
target triple = "x86_64-pc-linux-gnu"

@ett_cmd_data = internal global i32 0, align 4
@hf_ingress_egress_num_rules = internal global i32 0, align 4
@.str.1 = private unnamed_addr constant [8 x i8] c"Rules: \00", align 1
@hf_ingress_egress_rule_string = internal global i32 0, align 4

; Function Attrs: null_pointer_is_valid sspstrong uwtable
define hidden i32 @dissect_ingress_egress_rules(ptr noundef %0, ptr noundef %1, ptr noundef %2, ptr noundef %3, i32 noundef %4, i32 noundef %5) #0 {
  %7 = alloca ptr, align 8
  %8 = alloca ptr, align 8
  %9 = alloca ptr, align 8
  %10 = alloca ptr, align 8
  %11 = alloca i32, align 4
  %12 = alloca i32, align 4
  %13 = alloca i32, align 4
  %14 = alloca i32, align 4
  %15 = alloca ptr, align 8
  %16 = alloca ptr, align 8
  %17 = alloca i32, align 4
  store ptr %0, ptr %7, align 8
  store ptr %1, ptr %8, align 8
  store ptr %2, ptr %9, align 8
  store ptr %3, ptr %10, align 8
  store i32 %4, ptr %11, align 4
  store i32 %5, ptr %12, align 4
  call void @llvm.lifetime.start.p0(i64 4, ptr %13) #14
  %18 = load ptr, ptr %8, align 8
  %19 = load i32, ptr @hf_ingress_egress_num_rules, align 4
  %20 = load ptr, ptr %10, align 8
  %21 = load i32, ptr %11, align 4
  %22 = call ptr @proto_tree_add_item_ret_uint(ptr noundef %18, i32 noundef %19, ptr noundef %20, i32 noundef %21, i32 noundef 2, i32 noundef -2147483648, ptr noundef %13)
  call void @llvm.lifetime.start.p0(i64 4, ptr %14) #14
  store i32 2, ptr %14, align 4
  call void @llvm.lifetime.start.p0(i64 8, ptr %15) #14
  call void @llvm.lifetime.start.p0(i64 8, ptr %16) #14
  %23 = load ptr, ptr %8, align 8
  %24 = load ptr, ptr %10, align 8
  %25 = load i32, ptr %11, align 4
  %26 = load i32, ptr %14, align 4
  %27 = add i32 %25, %26
  %28 = load i32, ptr @ett_cmd_data, align 4
  %29 = call ptr (ptr, ptr, i32, i32, i32, ptr, ptr, ...) @proto_tree_add_subtree_format(ptr noundef %23, ptr noundef %24, i32 noundef %27, i32 noundef 0, i32 noundef %28, ptr noundef %15, ptr noundef @.str.1)
  store ptr %29, ptr %16, align 8
  call void @llvm.lifetime.start.p0(i64 4, ptr %17) #14
  store i32 0, ptr %17, align 4
  br label %30

30:                                               ; preds = %47, %6
  %31 = load i32, ptr %17, align 4
  %32 = load i32, ptr %13, align 4
  %33 = icmp ult i32 %31, %32
  br i1 %33, label %35, label %34

34:                                               ; preds = %30
  call void @llvm.lifetime.end.p0(i64 4, ptr %17) #14
  br label %50

35:                                               ; preds = %30
  %36 = load ptr, ptr %7, align 8
  %37 = load ptr, ptr %16, align 8
  %38 = load ptr, ptr %9, align 8
  %39 = load ptr, ptr %10, align 8
  %40 = load i32, ptr %11, align 4
  %41 = load i32, ptr %14, align 4
  %42 = add i32 %40, %41
  %43 = load i32, ptr @hf_ingress_egress_rule_string, align 4
  %44 = call i32 @dissect_cip_string_type(ptr noundef %36, ptr noundef %37, ptr noundef %38, ptr noundef %39, i32 noundef %42, i32 noundef %43, i32 noundef 218)
  %45 = load i32, ptr %14, align 4
  %46 = add i32 %45, %44
  store i32 %46, ptr %14, align 4
  br label %47

47:                                               ; preds = %35
  %48 = load i32, ptr %17, align 4
  %49 = add i32 %48, 1
  store i32 %49, ptr %17, align 4
  br label %30, !llvm.loop !8

50:                                               ; preds = %34
  %51 = load i32, ptr %14, align 4
  call void @llvm.lifetime.end.p0(i64 8, ptr %16) #14
  call void @llvm.lifetime.end.p0(i64 8, ptr %15) #14
  call void @llvm.lifetime.end.p0(i64 4, ptr %14) #14
  call void @llvm.lifetime.end.p0(i64 4, ptr %13) #14
  ret i32 %51
}