; Function Attrs: null_pointer_is_valid sspstrong uwtable
define hidden i32 @dissect_ingress_egress_rules(ptr noundef %0, ptr noundef %1, ptr noundef %2, ptr noundef %3, i32 noundef %4, i32 %5) #0 {
  %7 = alloca i32, align 4
  %8 = alloca ptr, align 8
  call void @llvm.lifetime.start.p0(i64 4, ptr nonnull %7) #12
  %9 = load i32, ptr @hf_ingress_egress_num_rules, align 4
  %10 = call ptr @proto_tree_add_item_ret_uint(ptr noundef %1, i32 noundef %9, ptr noundef %3, i32 noundef %4, i32 noundef 2, i32 noundef -2147483648, ptr noundef nonnull %7)
  call void @llvm.lifetime.start.p0(i64 8, ptr nonnull %8) #12
  %11 = add i32 %4, 2
  %12 = load i32, ptr @ett_cmd_data, align 4
  %13 = call ptr (ptr, ptr, i32, i32, i32, ptr, ptr, ...) @proto_tree_add_subtree_format(ptr noundef %1, ptr noundef %3, i32 noundef %11, i32 noundef 0, i32 noundef %12, ptr noundef nonnull %8, ptr noundef nonnull @.str.1)
  %14 = load i32, ptr %7, align 4
  %.not = icmp eq i32 %14, 0
  br i1 %.not, label %._crit_edge, label %.lr.ph

._crit_edge:                                      ; preds = %.lr.ph, %6
  %.016.lcssa = phi i32 [ 2, %6 ], [ %18, %.lr.ph ]
  call void @llvm.lifetime.end.p0(i64 8, ptr nonnull %8) #12
  call void @llvm.lifetime.end.p0(i64 4, ptr nonnull %7) #12
  ret i32 %.016.lcssa

.lr.ph:                                           ; preds = %6, %.lr.ph
  %.018 = phi i32 [ %19, %.lr.ph ], [ 0, %6 ]
  %.01617 = phi i32 [ %18, %.lr.ph ], [ 2, %6 ]
  %15 = add i32 %.01617, %4
  %16 = load i32, ptr @hf_ingress_egress_rule_string, align 4
  %17 = call i32 @dissect_cip_string_type(ptr noundef %0, ptr noundef %13, ptr noundef %2, ptr noundef %3, i32 noundef %15, i32 noundef %16, i32 noundef 218)
  %18 = add i32 %17, %.01617
  %19 = add nuw i32 %.018, 1
  %20 = load i32, ptr %7, align 4
  %21 = icmp ult i32 %19, %20
  br i1 %21, label %.lr.ph, label %._crit_edge, !llvm.loop !8
}